target datalayout = "e-m:e-p270:32:32-p271:32:32-p272:64:64-i64:64-i128:128-f80:128-n8:16:32:64-S128"
target triple = "x86_64-pc-linux-gnu"

%"class.llvm::MCInstPrinter" = type <{ ptr, ptr, ptr, ptr, ptr, ptr, i8, i8, i8, i8, i32, i8, i8, [6 x i8] }>
%"class.llvm::format_object" = type { %"class.llvm::format_object_base", %"class.std::tuple" }
%"class.llvm::format_object_base" = type { ptr, ptr }
%"class.std::tuple" = type { %"struct.std::_Tuple_impl" }
%"struct.std::_Tuple_impl" = type { %"struct.std::_Head_base" }
%"struct.std::_Head_base" = type { i64 }
%"struct.llvm::validate_format_parameters.20" = type { i8 }

@.str.2 = private unnamed_addr constant [20 x i8] c"-0x8000000000000000\00", align 1
@.str.3 = private unnamed_addr constant [7 x i8] c"-0x%lx\00", align 1
@.str.4 = private unnamed_addr constant [6 x i8] c"0x%lx\00", align 1
@.str.5 = private unnamed_addr constant [19 x i8] c"-8000000000000000h\00", align 1
@.str.6 = private unnamed_addr constant [7 x i8] c"-0%lxh\00", align 1
@.str.7 = private unnamed_addr constant [6 x i8] c"-%lxh\00", align 1
@.str.8 = private unnamed_addr constant [6 x i8] c"0%lxh\00", align 1
@.str.9 = private unnamed_addr constant [5 x i8] c"%lxh\00", align 1
@_ZTVN4llvm18format_object_baseE = external unnamed_addr constant { [4 x ptr] }, align 8
@_ZTVN4llvm13format_objectIJlEEE = linkonce_odr unnamed_addr constant { [4 x ptr] } { [4 x ptr] [ptr null, ptr null, ptr @_ZN4llvm18format_object_base4homeEv, ptr @_ZNK4llvm13format_objectIJlEE7snprintEPcj] }, comdat, align 8

; Function Attrs: mustprogress nounwind uwtable
define linkonce_odr hidden void @_ZNSt10_Head_baseILm0ElLb0EEC2ERKl(ptr noundef nonnull align 8 dereferenceable(8) %0, ptr noundef nonnull align 8 dereferenceable(8) %1) unnamed_addr #0 comdat align 2 {
  %3 = alloca ptr, align 8
  %4 = alloca ptr, align 8
  store ptr %0, ptr %3, align 8
  store ptr %1, ptr %4, align 8
  %5 = load ptr, ptr %3, align 8
  %6 = getelementptr inbounds nuw %"struct.std::_Head_base", ptr %5, i32 0, i32 0
  %7 = load ptr, ptr %4, align 8
  %8 = load i64, ptr %7, align 8
  store i64 %8, ptr %6, align 8
  ret void
}

; Function Attrs: mustprogress nounwind uwtable
define linkonce_odr hidden void @_ZNSt11_Tuple_implILm0EJlEEC2ERKl(ptr noundef nonnull align 8 dereferenceable(8) %0, ptr noundef nonnull align 8 dereferenceable(8) %1) unnamed_addr #0 comdat align 2 {
  %3 = alloca ptr, align 8
  %4 = alloca ptr, align 8
  store ptr %0, ptr %3, align 8
  store ptr %1, ptr %4, align 8
  %5 = load ptr, ptr %3, align 8
  %6 = load ptr, ptr %4, align 8
  call void @_ZNSt10_Head_baseILm0ElLb0EEC2ERKl(ptr noundef nonnull align 8 dereferenceable(8) %5, ptr noundef nonnull align 8 dereferenceable(8) %6)
  ret void
}

; Function Attrs: mustprogress nounwind uwtable
define linkonce_odr hidden void @_ZN4llvm26validate_format_parametersIJlEEC2Ev(ptr noundef nonnull align 1 dereferenceable(1) %0) unnamed_addr #0 comdat align 2 {
  %2 = alloca ptr, align 8
  store ptr %0, ptr %2, align 8
  ret void
}

; Function Attrs: mustprogress nounwind uwtable
define linkonce_odr hidden void @_ZNSt5tupleIJlEEC2ILb1ETnNSt9enable_ifIXclsr4_TCCIXT_EEE29__is_implicitly_constructibleIRKlEEEbE4typeELb1EEES4_(ptr noundef nonnull align 8 dereferenceable(8) %0, ptr noundef nonnull align 8 dereferenceable(8) %1) unnamed_addr #0 comdat align 2 {
  %3 = alloca ptr, align 8
  %4 = alloca ptr, align 8
  store ptr %0, ptr %3, align 8
  store ptr %1, ptr %4, align 8
  %5 = load ptr, ptr %3, align 8
  %6 = load ptr, ptr %4, align 8
  call void @_ZNSt11_Tuple_implILm0EJlEEC2ERKl(ptr noundef nonnull align 8 dereferenceable(8) %5, ptr noundef nonnull align 8 dereferenceable(8) %6)
  ret void
}

; Function Attrs: mustprogress nounwind uwtable
define linkonce_odr hidden void @_ZN4llvm18format_object_baseC2EPKc(ptr noundef nonnull align 8 dereferenceable(16) %0, ptr noundef %1) unnamed_addr #0 comdat align 2 {
  %3 = alloca ptr, align 8
  %4 = alloca ptr, align 8
  store ptr %0, ptr %3, align 8
  store ptr %1, ptr %4, align 8
  %5 = load ptr, ptr %3, align 8
  store ptr getelementptr inbounds inrange(-16, 16) ({ [4 x ptr] }, ptr @_ZTVN4llvm18format_object_baseE, i32 0, i32 0, i32 2), ptr %5, align 8
  %6 = getelementptr inbounds nuw %"class.llvm::format_object_base", ptr %5, i32 0, i32 1
  %7 = load ptr, ptr %4, align 8
  store ptr %7, ptr %6, align 8
  ret void
}

; Function Attrs: mustprogress nounwind uwtable
define linkonce_odr hidden void @_ZN4llvm13format_objectIJlEEC2EPKcRKl(ptr noundef nonnull align 8 dereferenceable(24) %0, ptr noundef %1, ptr noundef nonnull align 8 dereferenceable(8) %2) unnamed_addr #0 comdat align 2 {
  %4 = alloca ptr, align 8
  %5 = alloca ptr, align 8
  %6 = alloca ptr, align 8
  %7 = alloca %"struct.llvm::validate_format_parameters.20", align 1
  store ptr %0, ptr %4, align 8
  store ptr %1, ptr %5, align 8
  store ptr %2, ptr %6, align 8
  %8 = load ptr, ptr %4, align 8
  %9 = load ptr, ptr %5, align 8
  call void @_ZN4llvm18format_object_baseC2EPKc(ptr noundef nonnull align 8 dereferenceable(16) %8, ptr noundef %9)
  store ptr getelementptr inbounds inrange(-16, 16) ({ [4 x ptr] }, ptr @_ZTVN4llvm13format_objectIJlEEE, i32 0, i32 0, i32 2), ptr %8, align 8
  %10 = getelementptr inbounds nuw %"class.llvm::format_object", ptr %8, i32 0, i32 1
  %11 = load ptr, ptr %6, align 8
  call void @_ZNSt5tupleIJlEEC2ILb1ETnNSt9enable_ifIXclsr4_TCCIXT_EEE29__is_implicitly_constructibleIRKlEEEbE4typeELb1EEES4_(ptr noundef nonnull align 8 dereferenceable(8) %10, ptr noundef nonnull align 8 dereferenceable(8) %11) #7
  call void @_ZN4llvm26validate_format_parametersIJlEEC2Ev(ptr noundef nonnull align 1 dereferenceable(1) %7)
  ret void
}

; Function Attrs: mustprogress nounwind uwtable
define internal noundef zeroext i1 @_ZL16needsLeadingZerom(i64 noundef %0) #0 {
  %2 = alloca i1, align 1
  %3 = alloca i64, align 8
  %4 = alloca i64, align 8
  store i64 %0, ptr %3, align 8
  br label %5

5:                                                ; preds = %17, %1
  %6 = load i64, ptr %3, align 8
  %7 = icmp ne i64 %6, 0
  br i1 %7, label %8, label %20

8:                                                ; preds = %5
  %9 = load i64, ptr %3, align 8
  %10 = lshr i64 %9, 60
  %11 = and i64 %10, 15
  store i64 %11, ptr %4, align 8
  %12 = load i64, ptr %4, align 8
  %13 = icmp ne i64 %12, 0
  br i1 %13, label %14, label %17

14:                                               ; preds = %8
  %15 = load i64, ptr %4, align 8
  %16 = icmp uge i64 %15, 10
  store i1 %16, ptr %2, align 1
  br label %21

17:                                               ; preds = %8
  %18 = load i64, ptr %3, align 8
  %19 = shl i64 %18, 4
  store i64 %19, ptr %3, align 8
  br label %5, !llvm.loop !4

20:                                               ; preds = %5
  store i1 false, ptr %2, align 1
  br label %21

21:                                               ; preds = %20, %14
  %22 = load i1, ptr %2, align 1
  ret i1 %22
}

; Function Attrs: mustprogress nounwind uwtable
define linkonce_odr hidden void @_ZN4llvm6formatIJlEEENS_13format_objectIJDpT_EEEPKcDpRKS2_(ptr dead_on_unwind noalias writable sret(%"class.llvm::format_object") align 8 %0, ptr noundef %1, ptr noundef nonnull align 8 dereferenceable(8) %2) #0 comdat {
  %4 = alloca ptr, align 8
  %5 = alloca ptr, align 8
  %6 = alloca ptr, align 8
  store ptr %0, ptr %4, align 8
  store ptr %1, ptr %5, align 8
  store ptr %2, ptr %6, align 8
  %7 = load ptr, ptr %5, align 8
  %8 = load ptr, ptr %6, align 8
  call void @_ZN4llvm13format_objectIJlEEC2EPKcRKl(ptr noundef nonnull align 8 dereferenceable(24) %0, ptr noundef %7, ptr noundef nonnull align 8 dereferenceable(8) %8)
  ret void
}

; Function Attrs: mustprogress nounwind uwtable
define linkonce_odr hidden noundef i64 @_ZNSt14numeric_limitsIlE3minEv() #0 comdat align 2 {
  ret i64 -9223372036854775808
}

; Function Attrs: mustprogress nounwind uwtable
define dso_local void @_ZNK4llvm13MCInstPrinter9formatHexEl(ptr dead_on_unwind noalias writable sret(%"class.llvm::format_object") align 8 %0, ptr noundef nonnull align 8 dereferenceable(58) %1, i64 noundef %2) #0 align 2 {
  %4 = alloca ptr, align 8
  %5 = alloca ptr, align 8
  %6 = alloca i64, align 8
  %7 = alloca i64, align 8
  %8 = alloca i64, align 8
  %9 = alloca i64, align 8
  store ptr %0, ptr %4, align 8
  store ptr %1, ptr %5, align 8
  store i64 %2, ptr %6, align 8
  %10 = load ptr, ptr %5, align 8
  %11 = getelementptr inbounds nuw %"class.llvm::MCInstPrinter", ptr %10, i32 0, i32 10
  %12 = load i32, ptr %11, align 4
  switch i32 %12, label %48 [
    i32 0, label %13
    i32 1, label %25
  ]

13:                                               ; preds = %3
  %14 = load i64, ptr %6, align 8
  %15 = icmp slt i64 %14, 0
  br i1 %15, label %16, label %24

16:                                               ; preds = %13
  %17 = load i64, ptr %6, align 8
  %18 = call noundef i64 @_ZNSt14numeric_limitsIlE3minEv() #7
  %19 = icmp eq i64 %17, %18
  br i1 %19, label %20, label %21

20:                                               ; preds = %16
  call void @_ZN4llvm6formatIJlEEENS_13format_objectIJDpT_EEEPKcDpRKS2_(ptr dead_on_unwind writable sret(%"class.llvm::format_object") align 8 %0, ptr noundef @.str.2, ptr noundef nonnull align 8 dereferenceable(8) %6)
  br label %49

21:                                               ; preds = %16
  %22 = load i64, ptr %6, align 8
  %23 = sub nsw i64 0, %22
  store i64 %23, ptr %7, align 8
  call void @_ZN4llvm6formatIJlEEENS_13format_objectIJDpT_EEEPKcDpRKS2_(ptr dead_on_unwind writable sret(%"class.llvm::format_object") align 8 %0, ptr noundef @.str.3, ptr noundef nonnull align 8 dereferenceable(8) %7)
  br label %49

24:                                               ; preds = %13
  call void @_ZN4llvm6formatIJlEEENS_13format_objectIJDpT_EEEPKcDpRKS2_(ptr dead_on_unwind writable sret(%"class.llvm::format_object") align 8 %0, ptr noundef @.str.4, ptr noundef nonnull align 8 dereferenceable(8) %6)
  br label %49

25:                                               ; preds = %3
  %26 = load i64, ptr %6, align 8
  %27 = icmp slt i64 %26, 0
  br i1 %27, label %28, label %43

28:                                               ; preds = %25
  %29 = load i64, ptr %6, align 8
  %30 = call noundef i64 @_ZNSt14numeric_limitsIlE3minEv() #7
  %31 = icmp eq i64 %29, %30
  br i1 %31, label %32, label %33

32:                                               ; preds = %28
  call void @_ZN4llvm6formatIJlEEENS_13format_objectIJDpT_EEEPKcDpRKS2_(ptr dead_on_unwind writable sret(%"class.llvm::format_object") align 8 %0, ptr noundef @.str.5, ptr noundef nonnull align 8 dereferenceable(8) %6)
  br label %49

33:                                               ; preds = %28
  %34 = load i64, ptr %6, align 8
  %35 = sub i64 0, %34
  %36 = call noundef zeroext i1 @_ZL16needsLeadingZerom(i64 noundef %35)
  br i1 %36, label %37, label %40

37:                                               ; preds = %33
  %38 = load i64, ptr %6, align 8
  %39 = sub nsw i64 0, %38
  store i64 %39, ptr %8, align 8
  call void @_ZN4llvm6formatIJlEEENS_13format_objectIJDpT_EEEPKcDpRKS2_(ptr dead_on_unwind writable sret(%"class.llvm::format_object") align 8 %0, ptr noundef @.str.6, ptr noundef nonnull align 8 dereferenceable(8) %8)
  br label %49

40:                                               ; preds = %33
  %41 = load i64, ptr %6, align 8
  %42 = sub nsw i64 0, %41
  store i64 %42, ptr %9, align 8
  call void @_ZN4llvm6formatIJlEEENS_13format_objectIJDpT_EEEPKcDpRKS2_(ptr dead_on_unwind writable sret(%"class.llvm::format_object") align 8 %0, ptr noundef @.str.7, ptr noundef nonnull align 8 dereferenceable(8) %9)
  br label %49

43:                                               ; preds = %25
  %44 = load i64, ptr %6, align 8
  %45 = call noundef zeroext i1 @_ZL16needsLeadingZerom(i64 noundef %44)
  br i1 %45, label %46, label %47

46:                                               ; preds = %43
  call void @_ZN4llvm6formatIJlEEENS_13format_objectIJDpT_EEEPKcDpRKS2_(ptr dead_on_unwind writable sret(%"class.llvm::format_object") align 8 %0, ptr noundef @.str.8, ptr noundef nonnull align 8 dereferenceable(8) %6)
  br label %49

47:                                               ; preds = %43
  call void @_ZN4llvm6formatIJlEEENS_13format_objectIJDpT_EEEPKcDpRKS2_(ptr dead_on_unwind writable sret(%"class.llvm::format_object") align 8 %0, ptr noundef @.str.9, ptr noundef nonnull align 8 dereferenceable(8) %6)
  br label %49

48:                                               ; preds = %3
  unreachable

49:                                               ; preds = %47, %46, %40, %37, %32, %24, %21, %20
  ret void
}