; Function Attrs: mustprogress nofree norecurse nosync nounwind memory(argmem: readwrite) uwtable
define dso_local void @_ZNK4llvm13MCInstPrinter9formatHexEl(ptr dead_on_unwind noalias nocapture writable writeonly sret(%"class.llvm::format_object") align 8 %0, ptr nocapture noundef nonnull readonly align 8 dereferenceable(58) %1, i64 noundef %2) local_unnamed_addr #8 align 2 {
  %4 = getelementptr inbounds nuw i8, ptr %1, i64 52
  %5 = load i32, ptr %4, align 4
  %switch = icmp eq i32 %5, 0
  %6 = icmp slt i64 %2, 0
  br i1 %switch, label %7, label %20

7:                                                ; preds = %3
  br i1 %6, label %8, label %17

8:                                                ; preds = %7
  %9 = icmp eq i64 %2, -9223372036854775808
  br i1 %9, label %10, label %13

10:                                               ; preds = %8
  %11 = getelementptr inbounds nuw i8, ptr %0, i64 8
  store ptr @.str.2, ptr %11, align 8, !alias.scope !10
  store ptr getelementptr inbounds inrange(-16, 16) (i8, ptr @_ZTVN4llvm13format_objectIJlEEE, i64 16), ptr %0, align 8, !alias.scope !10
  %12 = getelementptr inbounds nuw i8, ptr %0, i64 16
  store i64 -9223372036854775808, ptr %12, align 8, !alias.scope !10
  br label %42

13:                                               ; preds = %8
  %14 = sub nsw i64 0, %2
  %15 = getelementptr inbounds nuw i8, ptr %0, i64 8
  store ptr @.str.3, ptr %15, align 8, !alias.scope !13
  store ptr getelementptr inbounds inrange(-16, 16) (i8, ptr @_ZTVN4llvm13format_objectIJlEEE, i64 16), ptr %0, align 8, !alias.scope !13
  %16 = getelementptr inbounds nuw i8, ptr %0, i64 16
  store i64 %14, ptr %16, align 8, !alias.scope !13
  br label %42

17:                                               ; preds = %7
  %18 = getelementptr inbounds nuw i8, ptr %0, i64 8
  store ptr @.str.4, ptr %18, align 8, !alias.scope !16
  store ptr getelementptr inbounds inrange(-16, 16) (i8, ptr @_ZTVN4llvm13format_objectIJlEEE, i64 16), ptr %0, align 8, !alias.scope !16
  %19 = getelementptr inbounds nuw i8, ptr %0, i64 16
  store i64 %2, ptr %19, align 8, !alias.scope !16
  br label %42

20:                                               ; preds = %3
  br i1 %6, label %21, label %34

21:                                               ; preds = %20
  %22 = icmp eq i64 %2, -9223372036854775808
  br i1 %22, label %23, label %26

23:                                               ; preds = %21
  %24 = getelementptr inbounds nuw i8, ptr %0, i64 8
  store ptr @.str.5, ptr %24, align 8, !alias.scope !19
  store ptr getelementptr inbounds inrange(-16, 16) (i8, ptr @_ZTVN4llvm13format_objectIJlEEE, i64 16), ptr %0, align 8, !alias.scope !19
  %25 = getelementptr inbounds nuw i8, ptr %0, i64 16
  store i64 -9223372036854775808, ptr %25, align 8, !alias.scope !19
  br label %42

26:                                               ; preds = %21
  %27 = sub nsw i64 0, %2
  br label %.lr.ph.i

.lr.ph.i:                                         ; preds = %.lr.ph.i, %26
  %.0510.i = phi i64 [ %28, %.lr.ph.i ], [ %27, %26 ]
  %.not7.i = icmp ult i64 %.0510.i, 1152921504606846976
  %28 = shl nuw i64 %.0510.i, 4
  br i1 %.not7.i, label %.lr.ph.i, label %_ZL16needsLeadingZerom.exit

_ZL16needsLeadingZerom.exit:                      ; preds = %.lr.ph.i
  %29 = icmp ugt i64 %.0510.i, -6917529027641081857
  %30 = getelementptr inbounds nuw i8, ptr %0, i64 8
  %31 = getelementptr inbounds nuw i8, ptr %0, i64 16
  br i1 %29, label %32, label %33

32:                                               ; preds = %_ZL16needsLeadingZerom.exit
  store ptr @.str.6, ptr %30, align 8, !alias.scope !22
  store ptr getelementptr inbounds inrange(-16, 16) (i8, ptr @_ZTVN4llvm13format_objectIJlEEE, i64 16), ptr %0, align 8, !alias.scope !22
  store i64 %27, ptr %31, align 8, !alias.scope !22
  br label %42

33:                                               ; preds = %_ZL16needsLeadingZerom.exit
  store ptr @.str.7, ptr %30, align 8, !alias.scope !25
  store ptr getelementptr inbounds inrange(-16, 16) (i8, ptr @_ZTVN4llvm13format_objectIJlEEE, i64 16), ptr %0, align 8, !alias.scope !25
  store i64 %27, ptr %31, align 8, !alias.scope !25
  br label %42

34:                                               ; preds = %20
  %.not9.i1 = icmp eq i64 %2, 0
  br i1 %.not9.i1, label %_ZL16needsLeadingZerom.exit6.thread, label %.lr.ph.i2

.lr.ph.i2:                                        ; preds = %34, %.lr.ph.i2
  %.0510.i3 = phi i64 [ %35, %.lr.ph.i2 ], [ %2, %34 ]
  %.not7.i4 = icmp ult i64 %.0510.i3, 1152921504606846976
  %35 = shl nuw i64 %.0510.i3, 4
  br i1 %.not7.i4, label %.lr.ph.i2, label %_ZL16needsLeadingZerom.exit6

_ZL16needsLeadingZerom.exit6:                     ; preds = %.lr.ph.i2
  %36 = icmp ugt i64 %.0510.i3, -6917529027641081857
  br i1 %36, label %37, label %_ZL16needsLeadingZerom.exit6.thread

37:                                               ; preds = %_ZL16needsLeadingZerom.exit6
  %38 = getelementptr inbounds nuw i8, ptr %0, i64 8
  store ptr @.str.8, ptr %38, align 8, !alias.scope !28
  store ptr getelementptr inbounds inrange(-16, 16) (i8, ptr @_ZTVN4llvm13format_objectIJlEEE, i64 16), ptr %0, align 8, !alias.scope !28
  %39 = getelementptr inbounds nuw i8, ptr %0, i64 16
  store i64 %2, ptr %39, align 8, !alias.scope !28
  br label %42

_ZL16needsLeadingZerom.exit6.thread:              ; preds = %34, %_ZL16needsLeadingZerom.exit6
  %40 = getelementptr inbounds nuw i8, ptr %0, i64 8
  store ptr @.str.9, ptr %40, align 8, !alias.scope !31
  store ptr getelementptr inbounds inrange(-16, 16) (i8, ptr @_ZTVN4llvm13format_objectIJlEEE, i64 16), ptr %0, align 8, !alias.scope !31
  %41 = getelementptr inbounds nuw i8, ptr %0, i64 16
  store i64 %2, ptr %41, align 8, !alias.scope !31
  br label %42

42:                                               ; preds = %_ZL16needsLeadingZerom.exit6.thread, %37, %33, %32, %23, %17, %13, %10
  ret void
}